target datalayout = "e-m:e-p270:32:32-p271:32:32-p272:64:64-i64:64-i128:128-f80:128-n8:16:32:64-S128"
target triple = "x86_64-pc-linux-gnu"

%struct._address = type { i32, i32, ptr, ptr }
%struct._packet_info = type { ptr, ptr, i32, i32, %struct.nstime_t, %struct.nstime_t, %struct.nstime_t, i8, ptr, ptr, ptr, ptr, %struct._address, %struct._address, %struct._address, %struct._address, %struct._address, %struct._address, i32, ptr, i8, [3 x i8], %struct.anon, i32, i32, i32, i32, ptr, i8, ptr, ptr, i16, i16, i32, i32, i16, i32, i32, ptr, ptr, ptr, i8, i8, i16, i16, i16, i32, i16, i16, ptr, ptr, ptr, ptr, ptr, i32, i32 }
%struct.nstime_t = type { i64, i32 }
%struct.anon = type { i8, [3 x i8] }
%struct._rtp_conversation_info = type { [12 x i8], i32, i32, ptr, ptr, ptr, ptr, ptr, ptr, ptr }
%struct._rtp_private_conv_info = type { ptr }

@proto_rtp = internal global i32 0, align 4
@global_rtp_version0_type = internal global i32 5, align 4
@stun_handle = internal global ptr null, align 8
@classicstun_handle = internal global ptr null, align 8
@t38_handle = internal global ptr null, align 8
@zrtp_handle = internal global ptr null, align 8
@sprt_handle = internal global ptr null, align 8
@.str.317 = private unnamed_addr constant [5 x i8] c"ZRTP\00", align 1
@.str.347 = private unnamed_addr constant [9 x i8] c"HEUR RTP\00", align 1

; Function Attrs: null_pointer_is_valid sspstrong uwtable
define internal zeroext i1 @dissect_rtp_heur(ptr noundef %0, ptr noundef %1, ptr noundef %2, ptr noundef %3) #1 {
  %5 = alloca i1, align 1
  %6 = alloca ptr, align 8
  %7 = alloca ptr, align 8
  %8 = alloca ptr, align 8
  %9 = alloca ptr, align 8
  %10 = alloca i8, align 1
  %11 = alloca i8, align 1
  %12 = alloca i32, align 4
  %13 = alloca i32, align 4
  %14 = alloca i32, align 4
  %15 = alloca i32, align 4
  %16 = alloca i32, align 4
  %17 = alloca ptr, align 8
  %18 = alloca ptr, align 8
  store ptr %0, ptr %6, align 8
  store ptr %1, ptr %7, align 8
  store ptr %2, ptr %8, align 8
  store ptr %3, ptr %9, align 8
  call void @llvm.lifetime.start.p0(i64 1, ptr %10) #14
  call void @llvm.lifetime.start.p0(i64 1, ptr %11) #14
  call void @llvm.lifetime.start.p0(i64 4, ptr %12) #14
  call void @llvm.lifetime.start.p0(i64 4, ptr %13) #14
  call void @llvm.lifetime.start.p0(i64 4, ptr %14) #14
  store i32 0, ptr %14, align 4
  call void @llvm.lifetime.start.p0(i64 4, ptr %15) #14
  %19 = load ptr, ptr %6, align 8
  %20 = load i32, ptr %14, align 4
  %21 = call i32 @tvb_captured_length_remaining(ptr noundef %19, i32 noundef %20)
  %22 = icmp slt i32 %21, 2
  br i1 %22, label %23, label %24

23:                                               ; preds = %4
  store i1 false, ptr %5, align 1
  store i32 1, ptr %16, align 4
  br label %244

24:                                               ; preds = %4
  %25 = load ptr, ptr %6, align 8
  %26 = load i32, ptr %14, align 4
  %27 = call zeroext i8 @tvb_get_uint8(ptr noundef %25, i32 noundef %26)
  store i8 %27, ptr %10, align 1
  %28 = load i8, ptr %10, align 1
  %29 = zext i8 %28 to i32
  %30 = ashr i32 %29, 6
  store i32 %30, ptr %12, align 4
  %31 = load i32, ptr %12, align 4
  %32 = icmp eq i32 %31, 0
  br i1 %32, label %33, label %73

33:                                               ; preds = %24
  %34 = load ptr, ptr %6, align 8
  %35 = call i32 @tvb_memeql(ptr noundef %34, i32 noundef 4, ptr noundef @.str.317, i64 noundef 4)
  %36 = icmp ne i32 %35, 0
  br i1 %36, label %43, label %37

37:                                               ; preds = %33
  %38 = load ptr, ptr @zrtp_handle, align 8
  %39 = load ptr, ptr %6, align 8
  %40 = load ptr, ptr %7, align 8
  %41 = load ptr, ptr %8, align 8
  %42 = call i32 @call_dissector_only(ptr noundef %38, ptr noundef %39, ptr noundef %40, ptr noundef %41, ptr noundef null)
  store i1 true, ptr %5, align 1
  store i32 1, ptr %16, align 4
  br label %244

43:                                               ; preds = %33
  %44 = load i32, ptr @global_rtp_version0_type, align 4
  switch i32 %44, label %72 [
    i32 1, label %45
    i32 2, label %52
    i32 3, label %59
    i32 4, label %65
    i32 0, label %71
    i32 5, label %71
  ]

45:                                               ; preds = %43
  %46 = load ptr, ptr @stun_handle, align 8
  %47 = load ptr, ptr %6, align 8
  %48 = load ptr, ptr %7, align 8
  %49 = load ptr, ptr %8, align 8
  %50 = call i32 @call_dissector_only(ptr noundef %46, ptr noundef %47, ptr noundef %48, ptr noundef %49, ptr noundef null)
  %51 = icmp ne i32 %50, 0
  store i1 %51, ptr %5, align 1
  store i32 1, ptr %16, align 4
  br label %244

52:                                               ; preds = %43
  %53 = load ptr, ptr @classicstun_handle, align 8
  %54 = load ptr, ptr %6, align 8
  %55 = load ptr, ptr %7, align 8
  %56 = load ptr, ptr %8, align 8
  %57 = call i32 @call_dissector_only(ptr noundef %53, ptr noundef %54, ptr noundef %55, ptr noundef %56, ptr noundef null)
  %58 = icmp ne i32 %57, 0
  store i1 %58, ptr %5, align 1
  store i32 1, ptr %16, align 4
  br label %244

59:                                               ; preds = %43
  %60 = load ptr, ptr @t38_handle, align 8
  %61 = load ptr, ptr %6, align 8
  %62 = load ptr, ptr %7, align 8
  %63 = load ptr, ptr %8, align 8
  %64 = call i32 @call_dissector_only(ptr noundef %60, ptr noundef %61, ptr noundef %62, ptr noundef %63, ptr noundef null)
  store i1 true, ptr %5, align 1
  store i32 1, ptr %16, align 4
  br label %244

65:                                               ; preds = %43
  %66 = load ptr, ptr @sprt_handle, align 8
  %67 = load ptr, ptr %6, align 8
  %68 = load ptr, ptr %7, align 8
  %69 = load ptr, ptr %8, align 8
  %70 = call i32 @call_dissector_only(ptr noundef %66, ptr noundef %67, ptr noundef %68, ptr noundef %69, ptr noundef null)
  store i1 true, ptr %5, align 1
  store i32 1, ptr %16, align 4
  br label %244

71:                                               ; preds = %43, %43
  br label %72

72:                                               ; preds = %43, %71
  store i1 false, ptr %5, align 1
  store i32 1, ptr %16, align 4
  br label %244

73:                                               ; preds = %24
  %74 = load i32, ptr %12, align 4
  %75 = icmp ne i32 %74, 2
  br i1 %75, label %76, label %77

76:                                               ; preds = %73
  store i1 false, ptr %5, align 1
  store i32 1, ptr %16, align 4
  br label %244

77:                                               ; preds = %73
  br label %78

78:                                               ; preds = %77
  %79 = load ptr, ptr %6, align 8
  %80 = load i32, ptr %14, align 4
  %81 = add i32 %80, 1
  %82 = call zeroext i8 @tvb_get_uint8(ptr noundef %79, i32 noundef %81)
  store i8 %82, ptr %11, align 1
  %83 = load i8, ptr %11, align 1
  %84 = zext i8 %83 to i32
  %85 = and i32 %84, 127
  store i32 %85, ptr %13, align 4
  %86 = load i32, ptr %13, align 4
  %87 = icmp uge i32 %86, 72
  br i1 %87, label %88, label %92

88:                                               ; preds = %78
  %89 = load i32, ptr %13, align 4
  %90 = icmp ule i32 %89, 76
  br i1 %90, label %91, label %92

91:                                               ; preds = %88
  store i1 false, ptr %5, align 1
  store i32 1, ptr %16, align 4
  br label %244

92:                                               ; preds = %88, %78
  %93 = load i32, ptr %14, align 4
  %94 = add i32 %93, 12
  store i32 %94, ptr %14, align 4
  %95 = load i8, ptr %10, align 1
  %96 = zext i8 %95 to i32
  %97 = and i32 %96, 15
  %98 = mul i32 4, %97
  %99 = load i32, ptr %14, align 4
  %100 = add i32 %99, %98
  store i32 %100, ptr %14, align 4
  %101 = load i8, ptr %10, align 1
  %102 = zext i8 %101 to i32
  %103 = and i32 %102, 16
  %104 = icmp ne i32 %103, 0
  br i1 %104, label %105, label %121

105:                                              ; preds = %92
  %106 = load ptr, ptr %6, align 8
  %107 = load i32, ptr %14, align 4
  %108 = call i32 @tvb_captured_length_remaining(ptr noundef %106, i32 noundef %107)
  %109 = icmp slt i32 %108, 4
  br i1 %109, label %110, label %111

110:                                              ; preds = %105
  store i1 false, ptr %5, align 1
  store i32 1, ptr %16, align 4
  br label %244

111:                                              ; preds = %105
  %112 = load ptr, ptr %6, align 8
  %113 = load i32, ptr %14, align 4
  %114 = add i32 %113, 2
  %115 = call zeroext i16 @tvb_get_uint16(ptr noundef %112, i32 noundef %114, i32 noundef 0)
  %116 = zext i16 %115 to i32
  %117 = mul i32 4, %116
  %118 = add i32 4, %117
  %119 = load i32, ptr %14, align 4
  %120 = add i32 %119, %118
  store i32 %120, ptr %14, align 4
  br label %121

121:                                              ; preds = %111, %92
  %122 = load ptr, ptr %6, align 8
  %123 = call i32 @tvb_reported_length(ptr noundef %122)
  %124 = load i32, ptr %14, align 4
  %125 = icmp ult i32 %123, %124
  br i1 %125, label %126, label %127

126:                                              ; preds = %121
  store i1 false, ptr %5, align 1
  store i32 1, ptr %16, align 4
  br label %244

127:                                              ; preds = %121
  %128 = load i8, ptr %10, align 1
  %129 = zext i8 %128 to i32
  %130 = and i32 %129, 32
  %131 = icmp ne i32 %130, 0
  br i1 %131, label %132, label %156

132:                                              ; preds = %127
  %133 = load ptr, ptr %6, align 8
  %134 = call i32 @tvb_captured_length(ptr noundef %133)
  %135 = load ptr, ptr %6, align 8
  %136 = call i32 @tvb_reported_length(ptr noundef %135)
  %137 = icmp eq i32 %134, %136
  br i1 %137, label %138, label %155

138:                                              ; preds = %132
  %139 = load ptr, ptr %6, align 8
  %140 = load ptr, ptr %6, align 8
  %141 = call i32 @tvb_reported_length(ptr noundef %140)
  %142 = sub i32 %141, 1
  %143 = call zeroext i8 @tvb_get_uint8(ptr noundef %139, i32 noundef %142)
  %144 = zext i8 %143 to i32
  store i32 %144, ptr %15, align 4
  %145 = load ptr, ptr %6, align 8
  %146 = load i32, ptr %14, align 4
  %147 = call i32 @tvb_reported_length_remaining(ptr noundef %145, i32 noundef %146)
  %148 = load i32, ptr %15, align 4
  %149 = icmp slt i32 %147, %148
  br i1 %149, label %153, label %150

150:                                              ; preds = %138
  %151 = load i32, ptr %15, align 4
  %152 = icmp eq i32 %151, 0
  br i1 %152, label %153, label %154

153:                                              ; preds = %150, %138
  store i1 false, ptr %5, align 1
  store i32 1, ptr %16, align 4
  br label %244

154:                                              ; preds = %150
  br label %155

155:                                              ; preds = %154, %132
  br label %156

156:                                              ; preds = %155, %127
  %157 = load ptr, ptr %7, align 8
  %158 = getelementptr inbounds nuw %struct._packet_info, ptr %157, i32 0, i32 3
  %159 = load i32, ptr %158, align 4
  %160 = load ptr, ptr %7, align 8
  %161 = getelementptr inbounds nuw %struct._packet_info, ptr %160, i32 0, i32 15
  %162 = load ptr, ptr %7, align 8
  %163 = getelementptr inbounds nuw %struct._packet_info, ptr %162, i32 0, i32 14
  %164 = load ptr, ptr %7, align 8
  %165 = getelementptr inbounds nuw %struct._packet_info, ptr %164, i32 0, i32 23
  %166 = load i32, ptr %165, align 8
  %167 = call i32 @conversation_pt_to_conversation_type(i32 noundef %166)
  %168 = load ptr, ptr %7, align 8
  %169 = getelementptr inbounds nuw %struct._packet_info, ptr %168, i32 0, i32 25
  %170 = load i32, ptr %169, align 8
  %171 = load ptr, ptr %7, align 8
  %172 = getelementptr inbounds nuw %struct._packet_info, ptr %171, i32 0, i32 24
  %173 = load i32, ptr %172, align 4
  %174 = call ptr @find_conversation(i32 noundef %159, ptr noundef %161, ptr noundef %163, i32 noundef %167, i32 noundef %170, i32 noundef %173, i32 noundef 65536)
  %175 = icmp ne ptr %174, null
  br i1 %175, label %238, label %176

176:                                              ; preds = %156
  call void @llvm.lifetime.start.p0(i64 8, ptr %17) #14
  call void @llvm.lifetime.start.p0(i64 8, ptr %18) #14
  %177 = load ptr, ptr %7, align 8
  %178 = getelementptr inbounds nuw %struct._packet_info, ptr %177, i32 0, i32 3
  %179 = load i32, ptr %178, align 4
  %180 = load ptr, ptr %7, align 8
  %181 = getelementptr inbounds nuw %struct._packet_info, ptr %180, i32 0, i32 15
  %182 = load ptr, ptr %7, align 8
  %183 = getelementptr inbounds nuw %struct._packet_info, ptr %182, i32 0, i32 14
  %184 = load ptr, ptr %7, align 8
  %185 = getelementptr inbounds nuw %struct._packet_info, ptr %184, i32 0, i32 23
  %186 = load i32, ptr %185, align 8
  %187 = call i32 @conversation_pt_to_conversation_type(i32 noundef %186)
  %188 = load ptr, ptr %7, align 8
  %189 = getelementptr inbounds nuw %struct._packet_info, ptr %188, i32 0, i32 25
  %190 = load i32, ptr %189, align 8
  %191 = load ptr, ptr %7, align 8
  %192 = getelementptr inbounds nuw %struct._packet_info, ptr %191, i32 0, i32 24
  %193 = load i32, ptr %192, align 4
  %194 = call ptr @conversation_new(i32 noundef %179, ptr noundef %181, ptr noundef %183, i32 noundef %187, i32 noundef %190, i32 noundef %193, i32 noundef 1)
  store ptr %194, ptr %17, align 8
  %195 = load ptr, ptr %17, align 8
  %196 = load i32, ptr @proto_rtp, align 4
  %197 = call ptr @conversation_get_proto_data(ptr noundef %195, i32 noundef %196)
  store ptr %197, ptr %18, align 8
  %198 = load ptr, ptr %18, align 8
  %199 = icmp ne ptr %198, null
  br i1 %199, label %220, label %200

200:                                              ; preds = %176
  %201 = call ptr @wmem_file_scope()
  %202 = call noalias ptr @wmem_alloc0(ptr noundef %201, i64 noundef 80) #15
  store ptr %202, ptr %18, align 8
  %203 = call ptr @wmem_file_scope()
  %204 = call noalias ptr @wmem_map_new(ptr noundef %203, ptr noundef @g_direct_hash, ptr noundef @g_direct_equal)
  %205 = load ptr, ptr %18, align 8
  %206 = getelementptr inbounds nuw %struct._rtp_conversation_info, ptr %205, i32 0, i32 4
  store ptr %204, ptr %206, align 8
  %207 = call ptr @wmem_file_scope()
  %208 = call noalias ptr @wmem_alloc(ptr noundef %207, i64 noundef 8) #15
  %209 = load ptr, ptr %18, align 8
  %210 = getelementptr inbounds nuw %struct._rtp_conversation_info, ptr %209, i32 0, i32 5
  store ptr %208, ptr %210, align 8
  %211 = call ptr @wmem_file_scope()
  %212 = call noalias ptr @wmem_tree_new(ptr noundef %211)
  %213 = load ptr, ptr %18, align 8
  %214 = getelementptr inbounds nuw %struct._rtp_conversation_info, ptr %213, i32 0, i32 5
  %215 = load ptr, ptr %214, align 8
  %216 = getelementptr inbounds nuw %struct._rtp_private_conv_info, ptr %215, i32 0, i32 0
  store ptr %212, ptr %216, align 8
  %217 = load ptr, ptr %17, align 8
  %218 = load i32, ptr @proto_rtp, align 4
  %219 = load ptr, ptr %18, align 8
  call void @conversation_add_proto_data(ptr noundef %217, i32 noundef %218, ptr noundef %219)
  br label %220

220:                                              ; preds = %200, %176
  %221 = load ptr, ptr %18, align 8
  %222 = getelementptr inbounds nuw %struct._rtp_conversation_info, ptr %221, i32 0, i32 0
  %223 = getelementptr inbounds [12 x i8], ptr %222, i64 0, i64 0
  %224 = call i64 @g_strlcpy(ptr noundef %223, ptr noundef @.str.347, i64 noundef 12)
  %225 = load ptr, ptr %7, align 8
  %226 = getelementptr inbounds nuw %struct._packet_info, ptr %225, i32 0, i32 3
  %227 = load i32, ptr %226, align 4
  %228 = load ptr, ptr %18, align 8
  %229 = getelementptr inbounds nuw %struct._rtp_conversation_info, ptr %228, i32 0, i32 1
  store i32 %227, ptr %229, align 4
  %230 = load ptr, ptr %18, align 8
  %231 = getelementptr inbounds nuw %struct._rtp_conversation_info, ptr %230, i32 0, i32 2
  store i32 0, ptr %231, align 8
  %232 = load ptr, ptr %18, align 8
  %233 = getelementptr inbounds nuw %struct._rtp_conversation_info, ptr %232, i32 0, i32 6
  store ptr null, ptr %233, align 8
  %234 = load ptr, ptr %18, align 8
  %235 = getelementptr inbounds nuw %struct._rtp_conversation_info, ptr %234, i32 0, i32 7
  store ptr null, ptr %235, align 8
  %236 = load ptr, ptr %18, align 8
  %237 = getelementptr inbounds nuw %struct._rtp_conversation_info, ptr %236, i32 0, i32 8
  store ptr null, ptr %237, align 8
  call void @llvm.lifetime.end.p0(i64 8, ptr %18) #14
  call void @llvm.lifetime.end.p0(i64 8, ptr %17) #14
  br label %238

238:                                              ; preds = %220, %156
  %239 = load ptr, ptr %6, align 8
  %240 = load ptr, ptr %7, align 8
  %241 = load ptr, ptr %8, align 8
  %242 = load ptr, ptr %9, align 8
  %243 = call i32 @dissect_rtp(ptr noundef %239, ptr noundef %240, ptr noundef %241, ptr noundef %242)
  store i1 true, ptr %5, align 1
  store i32 1, ptr %16, align 4
  br label %244

244:                                              ; preds = %238, %153, %126, %110, %91, %76, %72, %65, %59, %52, %45, %37, %23
  call void @llvm.lifetime.end.p0(i64 4, ptr %15) #14
  call void @llvm.lifetime.end.p0(i64 4, ptr %14) #14
  call void @llvm.lifetime.end.p0(i64 4, ptr %13) #14
  call void @llvm.lifetime.end.p0(i64 4, ptr %12) #14
  call void @llvm.lifetime.end.p0(i64 1, ptr %11) #14
  call void @llvm.lifetime.end.p0(i64 1, ptr %10) #14
  %245 = load i1, ptr %5, align 1
  ret i1 %245
}